; Function Attrs: mustprogress uwtable
define dso_local noundef i32 @_Z17luaL_checkbooleanP9lua_Statei(ptr noundef %0, i32 noundef %1) local_unnamed_addr #2 {
  %3 = tail call noundef i32 @_Z8lua_typeP9lua_Statei(ptr noundef %0, i32 noundef %1)
  %4 = icmp eq i32 %3, 1
  br i1 %4, label %6, label %5

5:                                                ; preds = %2
  tail call fastcc void @_ZL9tag_errorP9lua_Stateii(ptr noundef %0, i32 noundef %1, i32 noundef 1) #11
  unreachable

6:                                                ; preds = %2
  %7 = tail call noundef i32 @_Z13lua_tobooleanP9lua_Statei(ptr noundef %0, i32 noundef %1)
  ret i32 %7
}